target datalayout = "e-m:e-p270:32:32-p271:32:32-p272:64:64-i64:64-i128:128-f80:128-n8:16:32:64-S128"
target triple = "x86_64-pc-linux-gnu"

%struct.expert_field = type { i32, i32 }
%struct._packet_info = type { ptr, ptr, i32, i32, %struct.nstime_t, %struct.nstime_t, %struct.nstime_t, i8, ptr, ptr, ptr, ptr, %struct._address, %struct._address, %struct._address, %struct._address, %struct._address, %struct._address, i32, ptr, i8, [3 x i8], %struct.anon, i32, i32, i32, i32, ptr, i8, ptr, ptr, i16, i16, i32, i32, i16, i32, i32, ptr, ptr, ptr, i8, i8, i16, i16, i16, i32, i16, i16, ptr, ptr, ptr, ptr, ptr, i32, i32 }
%struct.nstime_t = type { i64, i32 }
%struct._address = type { i32, i32, ptr, ptr }
%struct.anon = type { i8, [3 x i8] }

@hf_bytes = internal global i32 0, align 4
@hf_folder = internal global i32 0, align 4
@hf_cemi_pw = internal global i32 0, align 4
@hf_cemi_pdt = internal global i32 0, align 4
@hf_cemi_me = internal global i32 0, align 4
@hf_cemi_ra = internal global i32 0, align 4
@hf_cemi_wa = internal global i32 0, align 4
@ett_cemi_pd = internal global i32 0, align 4
@ei_knxip_error = external global %struct.expert_field, align 4
@.str.498 = private unnamed_addr constant [6 x i8] c" N=%u\00", align 1
@.str.499 = private unnamed_addr constant [7 x i8] c", N=%u\00", align 1
@.str.564 = private unnamed_addr constant [18 x i8] c"Expected: 4 bytes\00", align 1
@.str.585 = private unnamed_addr constant [23 x i8] c"? Property Description\00", align 1
@.str.586 = private unnamed_addr constant [6 x i8] c" T=%u\00", align 1
@.str.587 = private unnamed_addr constant [7 x i8] c", T=%u\00", align 1
@.str.588 = private unnamed_addr constant [6 x i8] c" R=%u\00", align 1
@.str.589 = private unnamed_addr constant [6 x i8] c" W=%u\00", align 1
@.str.590 = private unnamed_addr constant [7 x i8] c", R=%u\00", align 1
@.str.591 = private unnamed_addr constant [7 x i8] c", W=%u\00", align 1
@.str.592 = private unnamed_addr constant [23 x i8] c"Property Description: \00", align 1
@.str.593 = private unnamed_addr constant [3 x i8] c"%s\00", align 1
@.str.594 = private unnamed_addr constant [13 x i8] c"PDT = 0x%02X\00", align 1
@.str.595 = private unnamed_addr constant [20 x i8] c", Max Elements = %u\00", align 1
@.str.596 = private unnamed_addr constant [12 x i8] c", Read = %u\00", align 1
@.str.597 = private unnamed_addr constant [13 x i8] c", Write = %u\00", align 1

; Function Attrs: null_pointer_is_valid sspstrong uwtable
define internal void @dissect_prop_descr(ptr noundef %0, ptr noundef %1, ptr noundef %2, ptr noundef %3, ptr noundef %4, i32 noundef %5, ptr noundef %6) #0 {
  %8 = alloca ptr, align 8
  %9 = alloca ptr, align 8
  %10 = alloca ptr, align 8
  %11 = alloca ptr, align 8
  %12 = alloca ptr, align 8
  %13 = alloca i32, align 4
  %14 = alloca ptr, align 8
  %15 = alloca i32, align 4
  %16 = alloca ptr, align 8
  %17 = alloca i8, align 1
  %18 = alloca ptr, align 8
  %19 = alloca i8, align 1
  %20 = alloca i8, align 1
  %21 = alloca i16, align 2
  %22 = alloca i8, align 1
  %23 = alloca i8, align 1
  %24 = alloca ptr, align 8
  %25 = alloca ptr, align 8
  %26 = alloca ptr, align 8
  store ptr %0, ptr %8, align 8
  store ptr %1, ptr %9, align 8
  store ptr %2, ptr %10, align 8
  store ptr %3, ptr %11, align 8
  store ptr %4, ptr %12, align 8
  store i32 %5, ptr %13, align 4
  store ptr %6, ptr %14, align 8
  call void @llvm.lifetime.start.p0(i64 4, ptr %15) #9
  %27 = load ptr, ptr %12, align 8
  %28 = load i32, ptr %27, align 4
  store i32 %28, ptr %15, align 4
  call void @llvm.lifetime.start.p0(i64 8, ptr %16) #9
  %29 = load ptr, ptr %9, align 8
  %30 = getelementptr inbounds nuw %struct._packet_info, ptr %29, i32 0, i32 1
  %31 = load ptr, ptr %30, align 8
  store ptr %31, ptr %16, align 8
  call void @llvm.lifetime.start.p0(i64 1, ptr %17) #9
  store i8 0, ptr %17, align 1
  %32 = load i32, ptr %15, align 4
  %33 = add i32 %32, 4
  %34 = load i32, ptr %13, align 4
  %35 = icmp sgt i32 %33, %34
  br i1 %35, label %36, label %49

36:                                               ; preds = %7
  call void @llvm.lifetime.start.p0(i64 8, ptr %18) #9
  %37 = load ptr, ptr %11, align 8
  %38 = load i32, ptr @hf_bytes, align 4
  %39 = load ptr, ptr %8, align 8
  %40 = load i32, ptr %15, align 4
  %41 = load i32, ptr %13, align 4
  %42 = load i32, ptr %15, align 4
  %43 = sub i32 %41, %42
  %44 = call ptr (ptr, i32, ptr, i32, i32, ptr, ptr, ...) @proto_tree_add_bytes_format(ptr noundef %37, i32 noundef %38, ptr noundef %39, i32 noundef %40, i32 noundef %43, ptr noundef null, ptr noundef @.str.585)
  store ptr %44, ptr %18, align 8
  %45 = load ptr, ptr %9, align 8
  %46 = load ptr, ptr %18, align 8
  %47 = call ptr (ptr, ptr, ptr, ptr, ...) @expert_add_info_format(ptr noundef %45, ptr noundef %46, ptr noundef @ei_knxip_error, ptr noundef @.str.564)
  store i8 1, ptr %17, align 1
  %48 = load i32, ptr %13, align 4
  store i32 %48, ptr %15, align 4
  call void @llvm.lifetime.end.p0(i64 8, ptr %18) #9
  br label %193

49:                                               ; preds = %7
  call void @llvm.lifetime.start.p0(i64 1, ptr %19) #9
  %50 = load ptr, ptr %8, align 8
  %51 = load i32, ptr %15, align 4
  %52 = call zeroext i8 @tvb_get_uint8(ptr noundef %50, i32 noundef %51)
  store i8 %52, ptr %19, align 1
  call void @llvm.lifetime.start.p0(i64 1, ptr %20) #9
  %53 = load i8, ptr %19, align 1
  %54 = zext i8 %53 to i32
  %55 = and i32 %54, 128
  %56 = icmp ne i32 %55, 0
  %57 = zext i1 %56 to i32
  %58 = trunc i32 %57 to i8
  store i8 %58, ptr %20, align 1
  %59 = load i8, ptr %19, align 1
  %60 = zext i8 %59 to i32
  %61 = and i32 %60, 63
  %62 = trunc i32 %61 to i8
  store i8 %62, ptr %19, align 1
  %63 = load ptr, ptr %16, align 8
  %64 = load i8, ptr %19, align 1
  %65 = zext i8 %64 to i32
  call void (ptr, i32, ptr, ...) @col_append_fstr(ptr noundef %63, i32 noundef 25, ptr noundef @.str.586, i32 noundef %65)
  %66 = load ptr, ptr %10, align 8
  %67 = load i8, ptr %19, align 1
  %68 = zext i8 %67 to i32
  call void (ptr, ptr, ...) @proto_item_append_text(ptr noundef %66, ptr noundef @.str.587, i32 noundef %68)
  call void @llvm.lifetime.start.p0(i64 2, ptr %21) #9
  %69 = load ptr, ptr %8, align 8
  %70 = load i32, ptr %15, align 4
  %71 = add i32 %70, 1
  %72 = call zeroext i16 @tvb_get_ntohs(ptr noundef %69, i32 noundef %71)
  %73 = zext i16 %72 to i32
  %74 = and i32 %73, 4095
  %75 = trunc i32 %74 to i16
  store i16 %75, ptr %21, align 2
  %76 = load i16, ptr %21, align 2
  %77 = zext i16 %76 to i32
  %78 = icmp ne i32 %77, 1
  br i1 %78, label %79, label %86

79:                                               ; preds = %49
  %80 = load ptr, ptr %16, align 8
  %81 = load i16, ptr %21, align 2
  %82 = zext i16 %81 to i32
  call void (ptr, i32, ptr, ...) @col_append_fstr(ptr noundef %80, i32 noundef 25, ptr noundef @.str.498, i32 noundef %82)
  %83 = load ptr, ptr %10, align 8
  %84 = load i16, ptr %21, align 2
  %85 = zext i16 %84 to i32
  call void (ptr, ptr, ...) @proto_item_append_text(ptr noundef %83, ptr noundef @.str.499, i32 noundef %85)
  br label %86

86:                                               ; preds = %79, %49
  call void @llvm.lifetime.start.p0(i64 1, ptr %22) #9
  %87 = load ptr, ptr %8, align 8
  %88 = load i32, ptr %15, align 4
  %89 = add i32 %88, 3
  %90 = call zeroext i8 @tvb_get_uint8(ptr noundef %87, i32 noundef %89)
  store i8 %90, ptr %22, align 1
  call void @llvm.lifetime.start.p0(i64 1, ptr %23) #9
  %91 = load i8, ptr %22, align 1
  %92 = zext i8 %91 to i32
  %93 = and i32 %92, 240
  %94 = ashr i32 %93, 4
  %95 = trunc i32 %94 to i8
  store i8 %95, ptr %23, align 1
  %96 = load i8, ptr %22, align 1
  %97 = zext i8 %96 to i32
  %98 = and i32 %97, 15
  %99 = trunc i32 %98 to i8
  store i8 %99, ptr %22, align 1
  %100 = load ptr, ptr %16, align 8
  %101 = load i8, ptr %23, align 1
  %102 = zext i8 %101 to i32
  call void (ptr, i32, ptr, ...) @col_append_fstr(ptr noundef %100, i32 noundef 25, ptr noundef @.str.588, i32 noundef %102)
  %103 = load i8, ptr %20, align 1
  %104 = icmp ne i8 %103, 0
  br i1 %104, label %105, label %109

105:                                              ; preds = %86
  %106 = load ptr, ptr %16, align 8
  %107 = load i8, ptr %22, align 1
  %108 = zext i8 %107 to i32
  call void (ptr, i32, ptr, ...) @col_append_fstr(ptr noundef %106, i32 noundef 25, ptr noundef @.str.589, i32 noundef %108)
  br label %109

109:                                              ; preds = %105, %86
  %110 = load ptr, ptr %10, align 8
  %111 = load i8, ptr %23, align 1
  %112 = zext i8 %111 to i32
  call void (ptr, ptr, ...) @proto_item_append_text(ptr noundef %110, ptr noundef @.str.590, i32 noundef %112)
  %113 = load i8, ptr %20, align 1
  %114 = icmp ne i8 %113, 0
  br i1 %114, label %115, label %119

115:                                              ; preds = %109
  %116 = load ptr, ptr %10, align 8
  %117 = load i8, ptr %22, align 1
  %118 = zext i8 %117 to i32
  call void (ptr, ptr, ...) @proto_item_append_text(ptr noundef %116, ptr noundef @.str.591, i32 noundef %118)
  br label %119

119:                                              ; preds = %115, %109
  %120 = load ptr, ptr %11, align 8
  %121 = icmp ne ptr %120, null
  br i1 %121, label %122, label %190

122:                                              ; preds = %119
  call void @llvm.lifetime.start.p0(i64 8, ptr %24) #9
  %123 = load ptr, ptr %11, align 8
  %124 = load i32, ptr @hf_folder, align 4
  %125 = load ptr, ptr %8, align 8
  %126 = load i32, ptr %15, align 4
  %127 = call ptr (ptr, i32, ptr, i32, i32, ptr, ...) @proto_tree_add_none_format(ptr noundef %123, i32 noundef %124, ptr noundef %125, i32 noundef %126, i32 noundef 4, ptr noundef @.str.592)
  store ptr %127, ptr %24, align 8
  call void @llvm.lifetime.start.p0(i64 8, ptr %25) #9
  %128 = load ptr, ptr %24, align 8
  %129 = load i32, ptr @ett_cemi_pd, align 4
  %130 = call ptr @proto_item_add_subtree(ptr noundef %128, i32 noundef %129)
  store ptr %130, ptr %25, align 8
  call void @llvm.lifetime.start.p0(i64 8, ptr %26) #9
  %131 = load i8, ptr %19, align 1
  %132 = zext i8 %131 to i32
  %133 = call ptr @try_val_to_str(i32 noundef %132, ptr noundef @pdt_vals)
  store ptr %133, ptr %26, align 8
  %134 = load ptr, ptr %26, align 8
  %135 = icmp ne ptr %134, null
  br i1 %135, label %136, label %139

136:                                              ; preds = %122
  %137 = load ptr, ptr %24, align 8
  %138 = load ptr, ptr %26, align 8
  call void (ptr, ptr, ...) @proto_item_append_text(ptr noundef %137, ptr noundef @.str.593, ptr noundef %138)
  br label %143

139:                                              ; preds = %122
  %140 = load ptr, ptr %24, align 8
  %141 = load i8, ptr %19, align 1
  %142 = zext i8 %141 to i32
  call void (ptr, ptr, ...) @proto_item_append_text(ptr noundef %140, ptr noundef @.str.594, i32 noundef %142)
  br label %143

143:                                              ; preds = %139, %136
  %144 = load i16, ptr %21, align 2
  %145 = zext i16 %144 to i32
  %146 = icmp ne i32 %145, 1
  br i1 %146, label %147, label %151

147:                                              ; preds = %143
  %148 = load ptr, ptr %24, align 8
  %149 = load i16, ptr %21, align 2
  %150 = zext i16 %149 to i32
  call void (ptr, ptr, ...) @proto_item_append_text(ptr noundef %148, ptr noundef @.str.595, i32 noundef %150)
  br label %151

151:                                              ; preds = %147, %143
  %152 = load ptr, ptr %24, align 8
  %153 = load i8, ptr %23, align 1
  %154 = zext i8 %153 to i32
  call void (ptr, ptr, ...) @proto_item_append_text(ptr noundef %152, ptr noundef @.str.596, i32 noundef %154)
  %155 = load i8, ptr %20, align 1
  %156 = icmp ne i8 %155, 0
  br i1 %156, label %157, label %161

157:                                              ; preds = %151
  %158 = load ptr, ptr %24, align 8
  %159 = load i8, ptr %22, align 1
  %160 = zext i8 %159 to i32
  call void (ptr, ptr, ...) @proto_item_append_text(ptr noundef %158, ptr noundef @.str.597, i32 noundef %160)
  br label %161

161:                                              ; preds = %157, %151
  %162 = load ptr, ptr %25, align 8
  %163 = load i32, ptr @hf_cemi_pw, align 4
  %164 = load ptr, ptr %8, align 8
  %165 = load i32, ptr %15, align 4
  %166 = call ptr @proto_tree_add_item(ptr noundef %162, i32 noundef %163, ptr noundef %164, i32 noundef %165, i32 noundef 1, i32 noundef 0)
  %167 = load ptr, ptr %25, align 8
  %168 = load i32, ptr @hf_cemi_pdt, align 4
  %169 = load ptr, ptr %8, align 8
  %170 = load i32, ptr %15, align 4
  %171 = call ptr @proto_tree_add_item(ptr noundef %167, i32 noundef %168, ptr noundef %169, i32 noundef %170, i32 noundef 1, i32 noundef 0)
  %172 = load ptr, ptr %25, align 8
  %173 = load i32, ptr @hf_cemi_me, align 4
  %174 = load ptr, ptr %8, align 8
  %175 = load i32, ptr %15, align 4
  %176 = add i32 %175, 1
  %177 = call ptr @proto_tree_add_item(ptr noundef %172, i32 noundef %173, ptr noundef %174, i32 noundef %176, i32 noundef 2, i32 noundef 0)
  %178 = load ptr, ptr %25, align 8
  %179 = load i32, ptr @hf_cemi_ra, align 4
  %180 = load ptr, ptr %8, align 8
  %181 = load i32, ptr %15, align 4
  %182 = add i32 %181, 3
  %183 = call ptr @proto_tree_add_item(ptr noundef %178, i32 noundef %179, ptr noundef %180, i32 noundef %182, i32 noundef 1, i32 noundef 0)
  %184 = load ptr, ptr %25, align 8
  %185 = load i32, ptr @hf_cemi_wa, align 4
  %186 = load ptr, ptr %8, align 8
  %187 = load i32, ptr %15, align 4
  %188 = add i32 %187, 3
  %189 = call ptr @proto_tree_add_item(ptr noundef %184, i32 noundef %185, ptr noundef %186, i32 noundef %188, i32 noundef 1, i32 noundef 0)
  call void @llvm.lifetime.end.p0(i64 8, ptr %26) #9
  call void @llvm.lifetime.end.p0(i64 8, ptr %25) #9
  call void @llvm.lifetime.end.p0(i64 8, ptr %24) #9
  br label %190

190:                                              ; preds = %161, %119
  %191 = load i32, ptr %15, align 4
  %192 = add i32 %191, 4
  store i32 %192, ptr %15, align 4
  call void @llvm.lifetime.end.p0(i64 1, ptr %23) #9
  call void @llvm.lifetime.end.p0(i64 1, ptr %22) #9
  call void @llvm.lifetime.end.p0(i64 2, ptr %21) #9
  call void @llvm.lifetime.end.p0(i64 1, ptr %20) #9
  call void @llvm.lifetime.end.p0(i64 1, ptr %19) #9
  br label %193

193:                                              ; preds = %190, %36
  %194 = load i8, ptr %17, align 1
  %195 = zext i8 %194 to i32
  %196 = icmp ne i32 %195, 0
  br i1 %196, label %197, label %202

197:                                              ; preds = %193
  %198 = load ptr, ptr %14, align 8
  %199 = icmp ne ptr %198, null
  br i1 %199, label %200, label %202

200:                                              ; preds = %197
  %201 = load ptr, ptr %14, align 8
  store i8 1, ptr %201, align 1
  br label %202

202:                                              ; preds = %200, %197, %193
  %203 = load i32, ptr %15, align 4
  %204 = load ptr, ptr %12, align 8
  store i32 %203, ptr %204, align 4
  call void @llvm.lifetime.end.p0(i64 1, ptr %17) #9
  call void @llvm.lifetime.end.p0(i64 8, ptr %16) #9
  call void @llvm.lifetime.end.p0(i64 4, ptr %15) #9
  ret void
}