; Function Attrs: null_pointer_is_valid sspstrong uwtable
define internal fastcc void @dissect_prop_descr(ptr noundef %0, ptr noundef %1, ptr noundef %2, ptr noundef %3, ptr noundef captures(none) %4, i32 noundef range(i32 1, -2147483648) %5, ptr noundef writeonly captures(address_is_null) %6) unnamed_addr #0 {
  %8 = load i32, ptr %4, align 4
  %9 = getelementptr inbounds nuw i8, ptr %1, i64 8
  %10 = load ptr, ptr %9, align 8
  %11 = add i32 %8, 4
  %12 = icmp sgt i32 %11, %5
  br i1 %12, label %55, label %13

13:                                               ; preds = %7
  %14 = tail call zeroext i8 @tvb_get_uint8(ptr noundef %0, i32 noundef %8)
  %15 = and i8 %14, 63
  %16 = zext nneg i8 %15 to i32
  tail call void (ptr, i32, ptr, ...) @col_append_fstr(ptr noundef %10, i32 noundef 25, ptr noundef nonnull @.str.586, i32 noundef %16)
  tail call void (ptr, ptr, ...) @proto_item_append_text(ptr noundef %2, ptr noundef nonnull @.str.587, i32 noundef %16)
  %17 = add i32 %8, 1
  %18 = tail call zeroext i16 @tvb_get_ntohs(ptr noundef %0, i32 noundef %17)
  %19 = and i16 %18, 4095
  %20 = zext nneg i16 %19 to i32
  %.not = icmp eq i16 %19, 1
  br i1 %.not, label %22, label %21

21:                                               ; preds = %13
  tail call void (ptr, i32, ptr, ...) @col_append_fstr(ptr noundef %10, i32 noundef 25, ptr noundef nonnull @.str.498, i32 noundef %20)
  tail call void (ptr, ptr, ...) @proto_item_append_text(ptr noundef %2, ptr noundef nonnull @.str.499, i32 noundef %20)
  br label %22

22:                                               ; preds = %21, %13
  %23 = add i32 %8, 3
  %24 = tail call zeroext i8 @tvb_get_uint8(ptr noundef %0, i32 noundef %23)
  %25 = lshr i8 %24, 4
  %26 = and i8 %24, 15
  %27 = zext nneg i8 %25 to i32
  tail call void (ptr, i32, ptr, ...) @col_append_fstr(ptr noundef %10, i32 noundef 25, ptr noundef nonnull @.str.588, i32 noundef %27)
  %.not88 = icmp sgt i8 %14, -1
  br i1 %.not88, label %.critedge, label %28

28:                                               ; preds = %22
  %29 = zext nneg i8 %26 to i32
  tail call void (ptr, i32, ptr, ...) @col_append_fstr(ptr noundef %10, i32 noundef 25, ptr noundef nonnull @.str.589, i32 noundef %29)
  tail call void (ptr, ptr, ...) @proto_item_append_text(ptr noundef %2, ptr noundef nonnull @.str.590, i32 noundef %27)
  tail call void (ptr, ptr, ...) @proto_item_append_text(ptr noundef %2, ptr noundef nonnull @.str.591, i32 noundef %29)
  br label %30

.critedge:                                        ; preds = %22
  tail call void (ptr, ptr, ...) @proto_item_append_text(ptr noundef %2, ptr noundef nonnull @.str.590, i32 noundef %27)
  br label %30

30:                                               ; preds = %.critedge, %28
  %.not89 = icmp eq ptr %3, null
  br i1 %.not89, label %.thread, label %31

31:                                               ; preds = %30
  %32 = load i32, ptr @hf_folder, align 4
  %33 = tail call ptr (ptr, i32, ptr, i32, i32, ptr, ...) @proto_tree_add_none_format(ptr noundef nonnull %3, i32 noundef %32, ptr noundef %0, i32 noundef %8, i32 noundef 4, ptr noundef nonnull @.str.592)
  %34 = load i32, ptr @ett_cemi_pd, align 4
  %35 = tail call ptr @proto_item_add_subtree(ptr noundef %33, i32 noundef %34)
  %36 = tail call ptr @try_val_to_str(i32 noundef %16, ptr noundef nonnull @pdt_vals)
  %.not90 = icmp eq ptr %36, null
  br i1 %.not90, label %38, label %37

37:                                               ; preds = %31
  tail call void (ptr, ptr, ...) @proto_item_append_text(ptr noundef %33, ptr noundef nonnull @.str.593, ptr noundef nonnull %36)
  br label %39

38:                                               ; preds = %31
  tail call void (ptr, ptr, ...) @proto_item_append_text(ptr noundef %33, ptr noundef nonnull @.str.594, i32 noundef %16)
  br label %39

39:                                               ; preds = %38, %37
  br i1 %.not, label %41, label %40

40:                                               ; preds = %39
  tail call void (ptr, ptr, ...) @proto_item_append_text(ptr noundef %33, ptr noundef nonnull @.str.595, i32 noundef %20)
  br label %41

41:                                               ; preds = %40, %39
  tail call void (ptr, ptr, ...) @proto_item_append_text(ptr noundef %33, ptr noundef nonnull @.str.596, i32 noundef %27)
  br i1 %.not88, label %44, label %42

42:                                               ; preds = %41
  %43 = zext nneg i8 %26 to i32
  tail call void (ptr, ptr, ...) @proto_item_append_text(ptr noundef %33, ptr noundef nonnull @.str.597, i32 noundef %43)
  br label %44

44:                                               ; preds = %42, %41
  %45 = load i32, ptr @hf_cemi_pw, align 4
  %46 = tail call ptr @proto_tree_add_item(ptr noundef %35, i32 noundef %45, ptr noundef %0, i32 noundef %8, i32 noundef 1, i32 noundef 0)
  %47 = load i32, ptr @hf_cemi_pdt, align 4
  %48 = tail call ptr @proto_tree_add_item(ptr noundef %35, i32 noundef %47, ptr noundef %0, i32 noundef %8, i32 noundef 1, i32 noundef 0)
  %49 = load i32, ptr @hf_cemi_me, align 4
  %50 = tail call ptr @proto_tree_add_item(ptr noundef %35, i32 noundef %49, ptr noundef %0, i32 noundef %17, i32 noundef 2, i32 noundef 0)
  %51 = load i32, ptr @hf_cemi_ra, align 4
  %52 = tail call ptr @proto_tree_add_item(ptr noundef %35, i32 noundef %51, ptr noundef %0, i32 noundef %23, i32 noundef 1, i32 noundef 0)
  %53 = load i32, ptr @hf_cemi_wa, align 4
  %54 = tail call ptr @proto_tree_add_item(ptr noundef %35, i32 noundef %53, ptr noundef %0, i32 noundef %23, i32 noundef 1, i32 noundef 0)
  br label %.thread

55:                                               ; preds = %7
  %56 = load i32, ptr @hf_bytes, align 4
  %57 = sub i32 %5, %8
  %58 = tail call ptr (ptr, i32, ptr, i32, i32, ptr, ptr, ...) @proto_tree_add_bytes_format(ptr noundef %3, i32 noundef %56, ptr noundef %0, i32 noundef %8, i32 noundef %57, ptr noundef null, ptr noundef nonnull @.str.585)
  %59 = tail call ptr (ptr, ptr, ptr, ptr, ...) @expert_add_info_format(ptr noundef %1, ptr noundef %58, ptr noundef nonnull @ei_knxip_error, ptr noundef nonnull @.str.564)
  %.not94 = icmp eq ptr %6, null
  br i1 %.not94, label %.thread, label %60

60:                                               ; preds = %55
  store i8 1, ptr %6, align 1
  br label %.thread

.thread:                                          ; preds = %44, %30, %60, %55
  %.093 = phi i32 [ %5, %60 ], [ %5, %55 ], [ %11, %30 ], [ %11, %44 ]
  store i32 %.093, ptr %4, align 4
  ret void
}